
Binary Clock.elf:     file format elf32-avr

Sections:
Idx Name          Size      VMA       LMA       File off  Algn
  0 .text         000008c2  00000000  00000000  00000094  2**1
                  CONTENTS, ALLOC, LOAD, READONLY, CODE
  1 .data         00000008  00800060  000008c2  00000956  2**0
                  CONTENTS, ALLOC, LOAD, DATA
  2 .bss          00000008  00800068  00800068  0000095e  2**0
                  ALLOC
  3 .comment      00000030  00000000  00000000  0000095e  2**0
                  CONTENTS, READONLY
  4 .debug_aranges 00000040  00000000  00000000  0000098e  2**0
                  CONTENTS, READONLY, DEBUGGING
  5 .debug_info   000003e5  00000000  00000000  000009ce  2**0
                  CONTENTS, READONLY, DEBUGGING
  6 .debug_abbrev 00000158  00000000  00000000  00000db3  2**0
                  CONTENTS, READONLY, DEBUGGING
  7 .debug_line   000001fd  00000000  00000000  00000f0b  2**0
                  CONTENTS, READONLY, DEBUGGING
  8 .debug_frame  000000f4  00000000  00000000  00001108  2**2
                  CONTENTS, READONLY, DEBUGGING
  9 .debug_str    00000216  00000000  00000000  000011fc  2**0
                  CONTENTS, READONLY, DEBUGGING
 10 .debug_loc    00000402  00000000  00000000  00001412  2**0
                  CONTENTS, READONLY, DEBUGGING
 11 .debug_ranges 00000030  00000000  00000000  00001814  2**0
                  CONTENTS, READONLY, DEBUGGING

Disassembly of section .text:

00000000 <__vectors>:
   0:	0c 94 2a 00 	jmp	0x54	; 0x54 <__ctors_end>
   4:	0c 94 47 00 	jmp	0x8e	; 0x8e <__bad_interrupt>
   8:	0c 94 47 00 	jmp	0x8e	; 0x8e <__bad_interrupt>
   c:	0c 94 47 00 	jmp	0x8e	; 0x8e <__bad_interrupt>
  10:	0c 94 47 00 	jmp	0x8e	; 0x8e <__bad_interrupt>
  14:	0c 94 47 00 	jmp	0x8e	; 0x8e <__bad_interrupt>
  18:	0c 94 47 00 	jmp	0x8e	; 0x8e <__bad_interrupt>
  1c:	0c 94 ef 03 	jmp	0x7de	; 0x7de <__vector_7>
  20:	0c 94 47 00 	jmp	0x8e	; 0x8e <__bad_interrupt>
  24:	0c 94 47 00 	jmp	0x8e	; 0x8e <__bad_interrupt>
  28:	0c 94 47 00 	jmp	0x8e	; 0x8e <__bad_interrupt>
  2c:	0c 94 47 00 	jmp	0x8e	; 0x8e <__bad_interrupt>
  30:	0c 94 47 00 	jmp	0x8e	; 0x8e <__bad_interrupt>
  34:	0c 94 47 00 	jmp	0x8e	; 0x8e <__bad_interrupt>
  38:	0c 94 47 00 	jmp	0x8e	; 0x8e <__bad_interrupt>
  3c:	0c 94 47 00 	jmp	0x8e	; 0x8e <__bad_interrupt>
  40:	0c 94 47 00 	jmp	0x8e	; 0x8e <__bad_interrupt>
  44:	0c 94 47 00 	jmp	0x8e	; 0x8e <__bad_interrupt>
  48:	0c 94 47 00 	jmp	0x8e	; 0x8e <__bad_interrupt>
  4c:	0c 94 47 00 	jmp	0x8e	; 0x8e <__bad_interrupt>
  50:	0c 94 47 00 	jmp	0x8e	; 0x8e <__bad_interrupt>

00000054 <__ctors_end>:
  54:	11 24       	eor	r1, r1
  56:	1f be       	out	0x3f, r1	; 63
  58:	cf e5       	ldi	r28, 0x5F	; 95
  5a:	d8 e0       	ldi	r29, 0x08	; 8
  5c:	de bf       	out	0x3e, r29	; 62
  5e:	cd bf       	out	0x3d, r28	; 61

00000060 <__do_copy_data>:
  60:	10 e0       	ldi	r17, 0x00	; 0
  62:	a0 e6       	ldi	r26, 0x60	; 96
  64:	b0 e0       	ldi	r27, 0x00	; 0
  66:	e2 ec       	ldi	r30, 0xC2	; 194
  68:	f8 e0       	ldi	r31, 0x08	; 8
  6a:	02 c0       	rjmp	.+4      	; 0x70 <__do_copy_data+0x10>
  6c:	05 90       	lpm	r0, Z+
  6e:	0d 92       	st	X+, r0
  70:	a8 36       	cpi	r26, 0x68	; 104
  72:	b1 07       	cpc	r27, r17
  74:	d9 f7       	brne	.-10     	; 0x6c <__do_copy_data+0xc>

00000076 <__do_clear_bss>:
  76:	20 e0       	ldi	r18, 0x00	; 0
  78:	a8 e6       	ldi	r26, 0x68	; 104
  7a:	b0 e0       	ldi	r27, 0x00	; 0
  7c:	01 c0       	rjmp	.+2      	; 0x80 <.do_clear_bss_start>

0000007e <.do_clear_bss_loop>:
  7e:	1d 92       	st	X+, r1

00000080 <.do_clear_bss_start>:
  80:	a0 37       	cpi	r26, 0x70	; 112
  82:	b2 07       	cpc	r27, r18
  84:	e1 f7       	brne	.-8      	; 0x7e <.do_clear_bss_loop>
  86:	0e 94 00 02 	call	0x400	; 0x400 <main>
  8a:	0c 94 5f 04 	jmp	0x8be	; 0x8be <_exit>

0000008e <__bad_interrupt>:
  8e:	0c 94 00 00 	jmp	0	; 0x0 <__vectors>

00000092 <encodeLed>:

void encodeAlarmLed(){
	
}

void encodeLed(void){
  92:	2f 92       	push	r2
  94:	3f 92       	push	r3
  96:	4f 92       	push	r4
  98:	5f 92       	push	r5
  9a:	6f 92       	push	r6
  9c:	7f 92       	push	r7
  9e:	8f 92       	push	r8
  a0:	9f 92       	push	r9
  a2:	af 92       	push	r10
  a4:	bf 92       	push	r11
  a6:	cf 92       	push	r12
  a8:	df 92       	push	r13
  aa:	ef 92       	push	r14
  ac:	ff 92       	push	r15
  ae:	0f 93       	push	r16
  b0:	1f 93       	push	r17
  b2:	cf 93       	push	r28
  b4:	df 93       	push	r29
  b6:	cd b7       	in	r28, 0x3d	; 61
  b8:	de b7       	in	r29, 0x3e	; 62
  ba:	6a 97       	sbiw	r28, 0x1a	; 26
  bc:	0f b6       	in	r0, 0x3f	; 63
  be:	f8 94       	cli
  c0:	de bf       	out	0x3e, r29	; 62
  c2:	0f be       	out	0x3f, r0	; 63
  c4:	cd bf       	out	0x3d, r28	; 61
	
	uint8_t sz = sekunde / 10;
  c6:	20 91 6e 00 	lds	r18, 0x006E
  ca:	30 91 6f 00 	lds	r19, 0x006F
  ce:	ad ec       	ldi	r26, 0xCD	; 205
  d0:	bc ec       	ldi	r27, 0xCC	; 204
  d2:	0e 94 50 04 	call	0x8a0	; 0x8a0 <__umulhisi3>
  d6:	8c 01       	movw	r16, r24
  d8:	16 95       	lsr	r17
  da:	07 95       	ror	r16
  dc:	16 95       	lsr	r17
  de:	07 95       	ror	r16
  e0:	16 95       	lsr	r17
  e2:	07 95       	ror	r16
	uint8_t se = sekunde % 10;
  e4:	e0 91 6e 00 	lds	r30, 0x006E
  e8:	f0 91 6f 00 	lds	r31, 0x006F
  ec:	9f 01       	movw	r18, r30
  ee:	0e 94 50 04 	call	0x8a0	; 0x8a0 <__umulhisi3>
  f2:	96 95       	lsr	r25
  f4:	87 95       	ror	r24
  f6:	96 95       	lsr	r25
  f8:	87 95       	ror	r24
  fa:	96 95       	lsr	r25
  fc:	87 95       	ror	r24
  fe:	9c 01       	movw	r18, r24
 100:	22 0f       	add	r18, r18
 102:	33 1f       	adc	r19, r19
 104:	88 0f       	add	r24, r24
 106:	99 1f       	adc	r25, r25
 108:	88 0f       	add	r24, r24
 10a:	99 1f       	adc	r25, r25
 10c:	88 0f       	add	r24, r24
 10e:	99 1f       	adc	r25, r25
 110:	82 0f       	add	r24, r18
 112:	93 1f       	adc	r25, r19
 114:	e8 1b       	sub	r30, r24
 116:	f9 0b       	sbc	r31, r25
	
	uint8_t mz = minute / 10;
 118:	20 91 6c 00 	lds	r18, 0x006C
 11c:	30 91 6d 00 	lds	r19, 0x006D
 120:	0e 94 50 04 	call	0x8a0	; 0x8a0 <__umulhisi3>
 124:	96 95       	lsr	r25
 126:	87 95       	ror	r24
 128:	96 95       	lsr	r25
 12a:	87 95       	ror	r24
 12c:	96 95       	lsr	r25
 12e:	87 95       	ror	r24
 130:	9a 8f       	std	Y+26, r25	; 0x1a
 132:	89 8f       	std	Y+25, r24	; 0x19
	uint8_t me = minute % 10;
 134:	40 91 6c 00 	lds	r20, 0x006C
 138:	50 91 6d 00 	lds	r21, 0x006D
 13c:	9a 01       	movw	r18, r20
 13e:	0e 94 50 04 	call	0x8a0	; 0x8a0 <__umulhisi3>
 142:	96 95       	lsr	r25
 144:	87 95       	ror	r24
 146:	96 95       	lsr	r25
 148:	87 95       	ror	r24
 14a:	96 95       	lsr	r25
 14c:	87 95       	ror	r24
 14e:	9c 01       	movw	r18, r24
 150:	22 0f       	add	r18, r18
 152:	33 1f       	adc	r19, r19
 154:	88 0f       	add	r24, r24
 156:	99 1f       	adc	r25, r25
 158:	88 0f       	add	r24, r24
 15a:	99 1f       	adc	r25, r25
 15c:	88 0f       	add	r24, r24
 15e:	99 1f       	adc	r25, r25
 160:	82 0f       	add	r24, r18
 162:	93 1f       	adc	r25, r19
 164:	48 1b       	sub	r20, r24
 166:	59 0b       	sbc	r21, r25
	
	uint8_t hz = stunde / 10;
 168:	20 91 6a 00 	lds	r18, 0x006A
 16c:	30 91 6b 00 	lds	r19, 0x006B
 170:	0e 94 50 04 	call	0x8a0	; 0x8a0 <__umulhisi3>
 174:	4c 01       	movw	r8, r24
 176:	96 94       	lsr	r9
 178:	87 94       	ror	r8
 17a:	96 94       	lsr	r9
 17c:	87 94       	ror	r8
 17e:	96 94       	lsr	r9
 180:	87 94       	ror	r8
	uint8_t he = stunde % 10;
 182:	60 90 6a 00 	lds	r6, 0x006A
 186:	70 90 6b 00 	lds	r7, 0x006B
 18a:	93 01       	movw	r18, r6
 18c:	0e 94 50 04 	call	0x8a0	; 0x8a0 <__umulhisi3>
 190:	96 95       	lsr	r25
 192:	87 95       	ror	r24
 194:	96 95       	lsr	r25
 196:	87 95       	ror	r24
 198:	96 95       	lsr	r25
 19a:	87 95       	ror	r24
 19c:	9c 01       	movw	r18, r24
 19e:	22 0f       	add	r18, r18
 1a0:	33 1f       	adc	r19, r19
 1a2:	88 0f       	add	r24, r24
 1a4:	99 1f       	adc	r25, r25
 1a6:	88 0f       	add	r24, r24
 1a8:	99 1f       	adc	r25, r25
 1aa:	88 0f       	add	r24, r24
 1ac:	99 1f       	adc	r25, r25
 1ae:	82 0f       	add	r24, r18
 1b0:	93 1f       	adc	r25, r19
 1b2:	68 1a       	sub	r6, r24
 1b4:	79 0a       	sbc	r7, r25
	uint8_t hz2 = hz >> 1;
	hz2 &= ~0b11111110;
	uint8_t hz1 = hz & ~0b11111110;
	
	// IC2 clocken
	PORTA = 0x00;
 1b6:	1b ba       	out	0x1b, r1	; 27
	PORTA |= se8<<4 | se4<<7 | me8<<5 | he8<<6;
 1b8:	8b b3       	in	r24, 0x1b	; 27
 1ba:	e3 fb       	bst	r30, 3
 1bc:	aa 24       	eor	r10, r10
 1be:	a0 f8       	bld	r10, 0
 1c0:	b1 2c       	mov	r11, r1
 1c2:	aa 0c       	add	r10, r10
 1c4:	bb 1c       	adc	r11, r11
 1c6:	aa 0c       	add	r10, r10
 1c8:	bb 1c       	adc	r11, r11
 1ca:	aa 0c       	add	r10, r10
 1cc:	bb 1c       	adc	r11, r11
 1ce:	aa 0c       	add	r10, r10
 1d0:	bb 1c       	adc	r11, r11
 1d2:	e2 fb       	bst	r30, 2
 1d4:	cc 24       	eor	r12, r12
 1d6:	c0 f8       	bld	r12, 0
 1d8:	d1 2c       	mov	r13, r1
 1da:	d6 94       	lsr	r13
 1dc:	dc 2c       	mov	r13, r12
 1de:	cc 24       	eor	r12, r12
 1e0:	d7 94       	ror	r13
 1e2:	c7 94       	ror	r12
 1e4:	ca 28       	or	r12, r10
 1e6:	c8 2a       	or	r12, r24
 1e8:	43 fb       	bst	r20, 3
 1ea:	ee 24       	eor	r14, r14
 1ec:	e0 f8       	bld	r14, 0
 1ee:	f1 2c       	mov	r15, r1
 1f0:	ee 0c       	add	r14, r14
 1f2:	ff 1c       	adc	r15, r15
 1f4:	ee 0c       	add	r14, r14
 1f6:	ff 1c       	adc	r15, r15
 1f8:	ee 0c       	add	r14, r14
 1fa:	ff 1c       	adc	r15, r15
 1fc:	ee 0c       	add	r14, r14
 1fe:	ff 1c       	adc	r15, r15
 200:	ee 0c       	add	r14, r14
 202:	ff 1c       	adc	r15, r15
 204:	ec 28       	or	r14, r12
 206:	63 fa       	bst	r6, 3
 208:	44 24       	eor	r4, r4
 20a:	40 f8       	bld	r4, 0
 20c:	51 2c       	mov	r5, r1
 20e:	00 24       	eor	r0, r0
 210:	56 94       	lsr	r5
 212:	47 94       	ror	r4
 214:	07 94       	ror	r0
 216:	56 94       	lsr	r5
 218:	47 94       	ror	r4
 21a:	07 94       	ror	r0
 21c:	54 2c       	mov	r5, r4
 21e:	40 2c       	mov	r4, r0
 220:	4e 28       	or	r4, r14
 222:	4b ba       	out	0x1b, r4	; 27
	PORTC ^= 1<<2;
 224:	95 b3       	in	r25, 0x15	; 21
 226:	84 e0       	ldi	r24, 0x04	; 4
 228:	98 27       	eor	r25, r24
 22a:	95 bb       	out	0x15, r25	; 21
	PORTC ^= 1<<2;
 22c:	95 b3       	in	r25, 0x15	; 21
 22e:	89 27       	eor	r24, r25
 230:	85 bb       	out	0x15, r24	; 21
	PORTA = 0x00;
 232:	1b ba       	out	0x1b, r1	; 27
	
	
	// IC3 clocken
	PORTA = 0x00;
 234:	1b ba       	out	0x1b, r1	; 27
	PORTA |= se2<<4 | sz4 | sz2<<5 | me4<<1 | mz4<<2 | he4<<3 | me2<<6 | hz2<<7;
 236:	8b b3       	in	r24, 0x1b	; 27
	se2 &= ~0b11111110;
	uint8_t se1 = se & ~0b11111110;
	
	// LED status bestimmen Sekunden Zehner
	uint8_t sz4 = sz >> 2;
	sz4 &= ~0b11111110;
 238:	02 fb       	bst	r16, 2
 23a:	22 27       	eor	r18, r18
 23c:	20 f9       	bld	r18, 0
	PORTA = 0x00;
	
	
	// IC3 clocken
	PORTA = 0x00;
	PORTA |= se2<<4 | sz4 | sz2<<5 | me4<<1 | mz4<<2 | he4<<3 | me2<<6 | hz2<<7;
 23e:	28 2b       	or	r18, r24
 240:	e1 fb       	bst	r30, 1
 242:	22 24       	eor	r2, r2
 244:	20 f8       	bld	r2, 0
 246:	31 2c       	mov	r3, r1
 248:	22 0c       	add	r2, r2
 24a:	33 1c       	adc	r3, r3
 24c:	22 0c       	add	r2, r2
 24e:	33 1c       	adc	r3, r3
 250:	22 0c       	add	r2, r2
 252:	33 1c       	adc	r3, r3
 254:	22 0c       	add	r2, r2
 256:	33 1c       	adc	r3, r3
 258:	22 2a       	or	r2, r18
 25a:	01 fb       	bst	r16, 1
 25c:	88 27       	eor	r24, r24
 25e:	80 f9       	bld	r24, 0
 260:	89 83       	std	Y+1, r24	; 0x01
 262:	1a 82       	std	Y+2, r1	; 0x02
 264:	29 81       	ldd	r18, Y+1	; 0x01
 266:	3a 81       	ldd	r19, Y+2	; 0x02
 268:	22 0f       	add	r18, r18
 26a:	33 1f       	adc	r19, r19
 26c:	22 95       	swap	r18
 26e:	32 95       	swap	r19
 270:	30 7f       	andi	r19, 0xF0	; 240
 272:	32 27       	eor	r19, r18
 274:	20 7f       	andi	r18, 0xF0	; 240
 276:	32 27       	eor	r19, r18
 278:	22 29       	or	r18, r2
 27a:	42 fb       	bst	r20, 2
 27c:	99 27       	eor	r25, r25
 27e:	90 f9       	bld	r25, 0
 280:	9b 83       	std	Y+3, r25	; 0x03
 282:	1c 82       	std	Y+4, r1	; 0x04
 284:	8b 81       	ldd	r24, Y+3	; 0x03
 286:	9c 81       	ldd	r25, Y+4	; 0x04
 288:	88 0f       	add	r24, r24
 28a:	99 1f       	adc	r25, r25
 28c:	82 2b       	or	r24, r18
 28e:	69 8d       	ldd	r22, Y+25	; 0x19
 290:	64 70       	andi	r22, 0x04	; 4
 292:	86 2b       	or	r24, r22
 294:	62 fa       	bst	r6, 2
 296:	aa 27       	eor	r26, r26
 298:	a0 f9       	bld	r26, 0
 29a:	ad 83       	std	Y+5, r26	; 0x05
 29c:	1e 82       	std	Y+6, r1	; 0x06
 29e:	6d 81       	ldd	r22, Y+5	; 0x05
 2a0:	7e 81       	ldd	r23, Y+6	; 0x06
 2a2:	66 0f       	add	r22, r22
 2a4:	77 1f       	adc	r23, r23
 2a6:	66 0f       	add	r22, r22
 2a8:	77 1f       	adc	r23, r23
 2aa:	66 0f       	add	r22, r22
 2ac:	77 1f       	adc	r23, r23
 2ae:	68 2b       	or	r22, r24
 2b0:	41 fb       	bst	r20, 1
 2b2:	bb 27       	eor	r27, r27
 2b4:	b0 f9       	bld	r27, 0
 2b6:	bf 83       	std	Y+7, r27	; 0x07
 2b8:	18 86       	std	Y+8, r1	; 0x08
 2ba:	2f 81       	ldd	r18, Y+7	; 0x07
 2bc:	38 85       	ldd	r19, Y+8	; 0x08
 2be:	00 24       	eor	r0, r0
 2c0:	36 95       	lsr	r19
 2c2:	27 95       	ror	r18
 2c4:	07 94       	ror	r0
 2c6:	36 95       	lsr	r19
 2c8:	27 95       	ror	r18
 2ca:	07 94       	ror	r0
 2cc:	32 2f       	mov	r19, r18
 2ce:	20 2d       	mov	r18, r0
 2d0:	26 2b       	or	r18, r22
 2d2:	81 fa       	bst	r8, 1
 2d4:	88 27       	eor	r24, r24
 2d6:	80 f9       	bld	r24, 0
 2d8:	89 87       	std	Y+9, r24	; 0x09
 2da:	1a 86       	std	Y+10, r1	; 0x0a
 2dc:	89 85       	ldd	r24, Y+9	; 0x09
 2de:	9a 85       	ldd	r25, Y+10	; 0x0a
 2e0:	96 95       	lsr	r25
 2e2:	98 2f       	mov	r25, r24
 2e4:	88 27       	eor	r24, r24
 2e6:	97 95       	ror	r25
 2e8:	87 95       	ror	r24
 2ea:	82 2b       	or	r24, r18
 2ec:	8b bb       	out	0x1b, r24	; 27
	PORTC ^= 1<<1;
 2ee:	95 b3       	in	r25, 0x15	; 21
 2f0:	82 e0       	ldi	r24, 0x02	; 2
 2f2:	98 27       	eor	r25, r24
 2f4:	95 bb       	out	0x15, r25	; 21
	PORTC ^= 1<<1;
 2f6:	95 b3       	in	r25, 0x15	; 21
 2f8:	89 27       	eor	r24, r25
 2fa:	85 bb       	out	0x15, r24	; 21
	PORTA = 0x00;
 2fc:	1b ba       	out	0x1b, r1	; 27
	
	// IC4 clocken
	PORTA = 0x00;
 2fe:	1b ba       	out	0x1b, r1	; 27
	PORTA |= se1 | sz1<<1 | me1<<2 | mz1<<3 | he1<<4 | hz1<<5 | mz2<<6 | he2<<7;
 300:	8b b3       	in	r24, 0x1b	; 27
	se8 &= ~0b11111110;
	uint8_t se4 = se >> 2;
	se4 &= ~0b11111110;
	uint8_t se2 = se >> 1;
	se2 &= ~0b11111110;
	uint8_t se1 = se & ~0b11111110;
 302:	e1 70       	andi	r30, 0x01	; 1
	PORTC ^= 1<<1;
	PORTA = 0x00;
	
	// IC4 clocken
	PORTA = 0x00;
	PORTA |= se1 | sz1<<1 | me1<<2 | mz1<<3 | he1<<4 | hz1<<5 | mz2<<6 | he2<<7;
 304:	e8 2b       	or	r30, r24
 306:	90 2f       	mov	r25, r16
 308:	91 70       	andi	r25, 0x01	; 1
 30a:	9b 87       	std	Y+11, r25	; 0x0b
 30c:	1c 86       	std	Y+12, r1	; 0x0c
 30e:	8b 85       	ldd	r24, Y+11	; 0x0b
 310:	9c 85       	ldd	r25, Y+12	; 0x0c
 312:	88 0f       	add	r24, r24
 314:	99 1f       	adc	r25, r25
 316:	8e 2b       	or	r24, r30
 318:	a4 2f       	mov	r26, r20
 31a:	a1 70       	andi	r26, 0x01	; 1
 31c:	ad 87       	std	Y+13, r26	; 0x0d
 31e:	1e 86       	std	Y+14, r1	; 0x0e
 320:	4d 85       	ldd	r20, Y+13	; 0x0d
 322:	5e 85       	ldd	r21, Y+14	; 0x0e
 324:	44 0f       	add	r20, r20
 326:	55 1f       	adc	r21, r21
 328:	44 0f       	add	r20, r20
 32a:	55 1f       	adc	r21, r21
 32c:	48 2b       	or	r20, r24
 32e:	b9 8d       	ldd	r27, Y+25	; 0x19
 330:	b1 70       	andi	r27, 0x01	; 1
 332:	bf 87       	std	Y+15, r27	; 0x0f
 334:	18 8a       	std	Y+16, r1	; 0x10
 336:	2f 85       	ldd	r18, Y+15	; 0x0f
 338:	38 89       	ldd	r19, Y+16	; 0x10
 33a:	22 0f       	add	r18, r18
 33c:	33 1f       	adc	r19, r19
 33e:	22 0f       	add	r18, r18
 340:	33 1f       	adc	r19, r19
 342:	22 0f       	add	r18, r18
 344:	33 1f       	adc	r19, r19
 346:	24 2b       	or	r18, r20
 348:	e6 2d       	mov	r30, r6
 34a:	e1 70       	andi	r30, 0x01	; 1
 34c:	e9 8b       	std	Y+17, r30	; 0x11
 34e:	1a 8a       	std	Y+18, r1	; 0x12
 350:	89 89       	ldd	r24, Y+17	; 0x11
 352:	9a 89       	ldd	r25, Y+18	; 0x12
 354:	82 95       	swap	r24
 356:	92 95       	swap	r25
 358:	90 7f       	andi	r25, 0xF0	; 240
 35a:	98 27       	eor	r25, r24
 35c:	80 7f       	andi	r24, 0xF0	; 240
 35e:	98 27       	eor	r25, r24
 360:	82 2b       	or	r24, r18
 362:	f8 2d       	mov	r31, r8
 364:	f1 70       	andi	r31, 0x01	; 1
 366:	fb 8b       	std	Y+19, r31	; 0x13
 368:	1c 8a       	std	Y+20, r1	; 0x14
 36a:	4b 89       	ldd	r20, Y+19	; 0x13
 36c:	5c 89       	ldd	r21, Y+20	; 0x14
 36e:	44 0f       	add	r20, r20
 370:	55 1f       	adc	r21, r21
 372:	42 95       	swap	r20
 374:	52 95       	swap	r21
 376:	50 7f       	andi	r21, 0xF0	; 240
 378:	54 27       	eor	r21, r20
 37a:	40 7f       	andi	r20, 0xF0	; 240
 37c:	54 27       	eor	r21, r20
 37e:	48 2b       	or	r20, r24
 380:	89 8d       	ldd	r24, Y+25	; 0x19
 382:	86 95       	lsr	r24
 384:	81 70       	andi	r24, 0x01	; 1
 386:	8d 8b       	std	Y+21, r24	; 0x15
 388:	1e 8a       	std	Y+22, r1	; 0x16
 38a:	2d 89       	ldd	r18, Y+21	; 0x15
 38c:	3e 89       	ldd	r19, Y+22	; 0x16
 38e:	00 24       	eor	r0, r0
 390:	36 95       	lsr	r19
 392:	27 95       	ror	r18
 394:	07 94       	ror	r0
 396:	36 95       	lsr	r19
 398:	27 95       	ror	r18
 39a:	07 94       	ror	r0
 39c:	32 2f       	mov	r19, r18
 39e:	20 2d       	mov	r18, r0
 3a0:	24 2b       	or	r18, r20
 3a2:	61 fa       	bst	r6, 1
 3a4:	99 27       	eor	r25, r25
 3a6:	90 f9       	bld	r25, 0
 3a8:	9f 8b       	std	Y+23, r25	; 0x17
 3aa:	18 8e       	std	Y+24, r1	; 0x18
 3ac:	8f 89       	ldd	r24, Y+23	; 0x17
 3ae:	98 8d       	ldd	r25, Y+24	; 0x18
 3b0:	96 95       	lsr	r25
 3b2:	98 2f       	mov	r25, r24
 3b4:	88 27       	eor	r24, r24
 3b6:	97 95       	ror	r25
 3b8:	87 95       	ror	r24
 3ba:	82 2b       	or	r24, r18
 3bc:	8b bb       	out	0x1b, r24	; 27
	PORTC ^= 1;
 3be:	95 b3       	in	r25, 0x15	; 21
 3c0:	81 e0       	ldi	r24, 0x01	; 1
 3c2:	98 27       	eor	r25, r24
 3c4:	95 bb       	out	0x15, r25	; 21
	PORTC ^= 1;
 3c6:	95 b3       	in	r25, 0x15	; 21
 3c8:	89 27       	eor	r24, r25
 3ca:	85 bb       	out	0x15, r24	; 21
	PORTA = 0x00;	
 3cc:	1b ba       	out	0x1b, r1	; 27
}
 3ce:	6a 96       	adiw	r28, 0x1a	; 26
 3d0:	0f b6       	in	r0, 0x3f	; 63
 3d2:	f8 94       	cli
 3d4:	de bf       	out	0x3e, r29	; 62
 3d6:	0f be       	out	0x3f, r0	; 63
 3d8:	cd bf       	out	0x3d, r28	; 61
 3da:	df 91       	pop	r29
 3dc:	cf 91       	pop	r28
 3de:	1f 91       	pop	r17
 3e0:	0f 91       	pop	r16
 3e2:	ff 90       	pop	r15
 3e4:	ef 90       	pop	r14
 3e6:	df 90       	pop	r13
 3e8:	cf 90       	pop	r12
 3ea:	bf 90       	pop	r11
 3ec:	af 90       	pop	r10
 3ee:	9f 90       	pop	r9
 3f0:	8f 90       	pop	r8
 3f2:	7f 90       	pop	r7
 3f4:	6f 90       	pop	r6
 3f6:	5f 90       	pop	r5
 3f8:	4f 90       	pop	r4
 3fa:	3f 90       	pop	r3
 3fc:	2f 90       	pop	r2
 3fe:	08 95       	ret

00000400 <main>:

int main(void)
{
	DDRA = 0xff;
 400:	8f ef       	ldi	r24, 0xFF	; 255
 402:	8a bb       	out	0x1a, r24	; 26
	DDRB = 0b11100000;
 404:	90 ee       	ldi	r25, 0xE0	; 224
 406:	97 bb       	out	0x17, r25	; 23
	DDRC = 0xff;
 408:	84 bb       	out	0x14, r24	; 20
	DDRD = 0b10111111;
 40a:	9f eb       	ldi	r25, 0xBF	; 191
 40c:	91 bb       	out	0x11, r25	; 17
	
	PORTA = 0xff;
 40e:	8b bb       	out	0x1b, r24	; 27
	PORTB = 0b00011111;
 410:	8f e1       	ldi	r24, 0x1F	; 31
 412:	88 bb       	out	0x18, r24	; 24
	PORTC = 0x00;
 414:	15 ba       	out	0x15, r1	; 21
	PORTD = 0b11000000;
 416:	80 ec       	ldi	r24, 0xC0	; 192
 418:	82 bb       	out	0x12, r24	; 18
	
	// D-Latch Clocken (leeren/initialisieren)
	PORTA = 0x00;
 41a:	1b ba       	out	0x1b, r1	; 27
	PORTC = 0b00000111;
 41c:	87 e0       	ldi	r24, 0x07	; 7
 41e:	85 bb       	out	0x15, r24	; 21
	#else
		//round up by default
		__ticks_dc = (uint32_t)(ceil(fabs(__tmp)));
	#endif

	__builtin_avr_delay_cycles(__ticks_dc);
 420:	2f ef       	ldi	r18, 0xFF	; 255
 422:	40 e7       	ldi	r20, 0x70	; 112
 424:	52 e0       	ldi	r21, 0x02	; 2
 426:	21 50       	subi	r18, 0x01	; 1
 428:	40 40       	sbci	r20, 0x00	; 0
 42a:	50 40       	sbci	r21, 0x00	; 0
 42c:	e1 f7       	brne	.-8      	; 0x426 <main+0x26>
 42e:	00 c0       	rjmp	.+0      	; 0x430 <main+0x30>
 430:	00 00       	nop
	_delay_ms(100);
	PORTC = 0b00000000;
 432:	15 ba       	out	0x15, r1	; 21
	//PORTC ^= 1<<2;
	//PORTC ^= 1<<2;
	//PORTC ^= 0b00000001;
	//PORTC ^= 0b00000001;
	
	sei();
 434:	78 94       	sei
	
	TCCR1B |= 1<<CS12 | 1<<WGM12;
 436:	8e b5       	in	r24, 0x2e	; 46
 438:	8c 60       	ori	r24, 0x0C	; 12
 43a:	8e bd       	out	0x2e, r24	; 46
	TIMSK |= 1<<OCIE1A;
 43c:	89 b7       	in	r24, 0x39	; 57
 43e:	80 61       	ori	r24, 0x10	; 16
 440:	89 bf       	out	0x39, r24	; 57
	OCR1A = 31250-1;
 442:	81 e1       	ldi	r24, 0x11	; 17
 444:	9a e7       	ldi	r25, 0x7A	; 122
 446:	9b bd       	out	0x2b, r25	; 43
 448:	8a bd       	out	0x2a, r24	; 42
				statusReg |= 1<<updateBit;
			}
		}
		else
		{
			statusReg &= ~(1<<button2Bit); // Button is not pressed
 44a:	c1 e0       	ldi	r28, 0x01	; 1
 44c:	d0 e0       	ldi	r29, 0x00	; 0
				{
					stunde--;
				}
				else
				{
					stunde = 23;
 44e:	0f 2e       	mov	r0, r31
 450:	f7 e1       	ldi	r31, 0x17	; 23
 452:	ef 2e       	mov	r14, r31
 454:	f1 2c       	mov	r15, r1
 456:	f0 2d       	mov	r31, r0
				{
					minute--;
				}
				else
				{
					minute = 59;
 458:	0b e3       	ldi	r16, 0x3B	; 59
 45a:	10 e0       	ldi	r17, 0x00	; 0
		// Toggle Alarm
		if ( !( PIND & (1<<PIND6) ) )	// When pulled to LOW by pressing button
		{
			if (bit_is_clear(statusReg, button6Bit)) // When previously not pressed
			{
				PORTD ^= (1<<PIND5);
 45c:	68 94       	set
 45e:	dd 24       	eor	r13, r13
 460:	d5 f8       	bld	r13, 5
        //_delay_ms(1000);
		//toggleLED();
		
		
		// ========= Setting Hour + =============
		if ( !( PINB & (1<<PINB3) ) )	// When pulled to LOW by pressing button
 462:	b3 99       	sbic	0x16, 3	; 22
 464:	3d c0       	rjmp	.+122    	; 0x4e0 <main+0xe0>
		{
			if (bit_is_clear(statusReg, button2Bit)) // When previously not pressed
 466:	80 91 69 00 	lds	r24, 0x0069
 46a:	20 91 65 00 	lds	r18, 0x0065
 46e:	90 e0       	ldi	r25, 0x00	; 0
 470:	02 c0       	rjmp	.+4      	; 0x476 <main+0x76>
 472:	95 95       	asr	r25
 474:	87 95       	ror	r24
 476:	2a 95       	dec	r18
 478:	e2 f7       	brpl	.-8      	; 0x472 <main+0x72>
 47a:	80 fd       	sbrc	r24, 0
 47c:	40 c0       	rjmp	.+128    	; 0x4fe <main+0xfe>
			{
				if (stunde < 23)
 47e:	80 91 6a 00 	lds	r24, 0x006A
 482:	90 91 6b 00 	lds	r25, 0x006B
 486:	47 97       	sbiw	r24, 0x17	; 23
 488:	50 f4       	brcc	.+20     	; 0x49e <main+0x9e>
				{
					stunde++;
 48a:	80 91 6a 00 	lds	r24, 0x006A
 48e:	90 91 6b 00 	lds	r25, 0x006B
 492:	01 96       	adiw	r24, 0x01	; 1
 494:	90 93 6b 00 	sts	0x006B, r25
 498:	80 93 6a 00 	sts	0x006A, r24
 49c:	04 c0       	rjmp	.+8      	; 0x4a6 <main+0xa6>
				}
				else
				{
					stunde = 0;
 49e:	10 92 6b 00 	sts	0x006B, r1
 4a2:	10 92 6a 00 	sts	0x006A, r1
				}
				statusReg |= 1<<button2Bit; // Button was pressed
 4a6:	80 91 65 00 	lds	r24, 0x0065
 4aa:	20 91 69 00 	lds	r18, 0x0069
 4ae:	ae 01       	movw	r20, r28
 4b0:	02 c0       	rjmp	.+4      	; 0x4b6 <main+0xb6>
 4b2:	44 0f       	add	r20, r20
 4b4:	55 1f       	adc	r21, r21
 4b6:	8a 95       	dec	r24
 4b8:	e2 f7       	brpl	.-8      	; 0x4b2 <main+0xb2>
 4ba:	ca 01       	movw	r24, r20
 4bc:	82 2b       	or	r24, r18
 4be:	80 93 69 00 	sts	0x0069, r24
				statusReg |= 1<<updateBit;
 4c2:	80 91 68 00 	lds	r24, 0x0068
 4c6:	20 91 69 00 	lds	r18, 0x0069
 4ca:	ae 01       	movw	r20, r28
 4cc:	02 c0       	rjmp	.+4      	; 0x4d2 <main+0xd2>
 4ce:	44 0f       	add	r20, r20
 4d0:	55 1f       	adc	r21, r21
 4d2:	8a 95       	dec	r24
 4d4:	e2 f7       	brpl	.-8      	; 0x4ce <main+0xce>
 4d6:	ca 01       	movw	r24, r20
 4d8:	82 2b       	or	r24, r18
 4da:	80 93 69 00 	sts	0x0069, r24
 4de:	0f c0       	rjmp	.+30     	; 0x4fe <main+0xfe>
			}
		}
		else
		{
			statusReg &= ~(1<<button2Bit); // Button is not pressed
 4e0:	80 91 65 00 	lds	r24, 0x0065
 4e4:	20 91 69 00 	lds	r18, 0x0069
 4e8:	ae 01       	movw	r20, r28
 4ea:	02 c0       	rjmp	.+4      	; 0x4f0 <main+0xf0>
 4ec:	44 0f       	add	r20, r20
 4ee:	55 1f       	adc	r21, r21
 4f0:	8a 95       	dec	r24
 4f2:	e2 f7       	brpl	.-8      	; 0x4ec <main+0xec>
 4f4:	ca 01       	movw	r24, r20
 4f6:	80 95       	com	r24
 4f8:	82 23       	and	r24, r18
 4fa:	80 93 69 00 	sts	0x0069, r24
		}
		// ==================================
		
		// ========= Setting Hour - =============
		if ( !( PINB & (1<<PINB4) ) )	// When pulled to LOW by pressing button
 4fe:	b4 99       	sbic	0x16, 4	; 22
 500:	3d c0       	rjmp	.+122    	; 0x57c <main+0x17c>
		{
			if (bit_is_clear(statusReg, button1Bit)) // When previously not pressed
 502:	80 91 69 00 	lds	r24, 0x0069
 506:	20 91 66 00 	lds	r18, 0x0066
 50a:	90 e0       	ldi	r25, 0x00	; 0
 50c:	02 c0       	rjmp	.+4      	; 0x512 <main+0x112>
 50e:	95 95       	asr	r25
 510:	87 95       	ror	r24
 512:	2a 95       	dec	r18
 514:	e2 f7       	brpl	.-8      	; 0x50e <main+0x10e>
 516:	80 fd       	sbrc	r24, 0
 518:	40 c0       	rjmp	.+128    	; 0x59a <main+0x19a>
			{
				if (stunde > 1)
 51a:	80 91 6a 00 	lds	r24, 0x006A
 51e:	90 91 6b 00 	lds	r25, 0x006B
 522:	02 97       	sbiw	r24, 0x02	; 2
 524:	50 f0       	brcs	.+20     	; 0x53a <main+0x13a>
				{
					stunde--;
 526:	80 91 6a 00 	lds	r24, 0x006A
 52a:	90 91 6b 00 	lds	r25, 0x006B
 52e:	01 97       	sbiw	r24, 0x01	; 1
 530:	90 93 6b 00 	sts	0x006B, r25
 534:	80 93 6a 00 	sts	0x006A, r24
 538:	04 c0       	rjmp	.+8      	; 0x542 <main+0x142>
				}
				else
				{
					stunde = 23;
 53a:	f0 92 6b 00 	sts	0x006B, r15
 53e:	e0 92 6a 00 	sts	0x006A, r14
				}
				statusReg |= 1<<button1Bit; // Button was pressed
 542:	80 91 66 00 	lds	r24, 0x0066
 546:	20 91 69 00 	lds	r18, 0x0069
 54a:	ae 01       	movw	r20, r28
 54c:	02 c0       	rjmp	.+4      	; 0x552 <main+0x152>
 54e:	44 0f       	add	r20, r20
 550:	55 1f       	adc	r21, r21
 552:	8a 95       	dec	r24
 554:	e2 f7       	brpl	.-8      	; 0x54e <main+0x14e>
 556:	ca 01       	movw	r24, r20
 558:	82 2b       	or	r24, r18
 55a:	80 93 69 00 	sts	0x0069, r24
				statusReg |= 1<<updateBit;
 55e:	80 91 68 00 	lds	r24, 0x0068
 562:	20 91 69 00 	lds	r18, 0x0069
 566:	ae 01       	movw	r20, r28
 568:	02 c0       	rjmp	.+4      	; 0x56e <main+0x16e>
 56a:	44 0f       	add	r20, r20
 56c:	55 1f       	adc	r21, r21
 56e:	8a 95       	dec	r24
 570:	e2 f7       	brpl	.-8      	; 0x56a <main+0x16a>
 572:	ca 01       	movw	r24, r20
 574:	82 2b       	or	r24, r18
 576:	80 93 69 00 	sts	0x0069, r24
 57a:	0f c0       	rjmp	.+30     	; 0x59a <main+0x19a>
			}
		}
		else
		{
			statusReg &= ~(1<<button1Bit); // Button is not pressed
 57c:	80 91 66 00 	lds	r24, 0x0066
 580:	20 91 69 00 	lds	r18, 0x0069
 584:	ae 01       	movw	r20, r28
 586:	02 c0       	rjmp	.+4      	; 0x58c <main+0x18c>
 588:	44 0f       	add	r20, r20
 58a:	55 1f       	adc	r21, r21
 58c:	8a 95       	dec	r24
 58e:	e2 f7       	brpl	.-8      	; 0x588 <main+0x188>
 590:	ca 01       	movw	r24, r20
 592:	80 95       	com	r24
 594:	82 23       	and	r24, r18
 596:	80 93 69 00 	sts	0x0069, r24
		}
		// ==================================

		// ========= Setting Minuten + =============
		if ( !( PINB & (1<<PINB1) ) )	// When pulled to LOW by pressing button
 59a:	b1 99       	sbic	0x16, 1	; 22
 59c:	43 c0       	rjmp	.+134    	; 0x624 <main+0x224>
		{
			if (bit_is_clear(statusReg, button4Bit)) // When previously not pressed
 59e:	80 91 69 00 	lds	r24, 0x0069
 5a2:	20 91 63 00 	lds	r18, 0x0063
 5a6:	90 e0       	ldi	r25, 0x00	; 0
 5a8:	02 c0       	rjmp	.+4      	; 0x5ae <main+0x1ae>
 5aa:	95 95       	asr	r25
 5ac:	87 95       	ror	r24
 5ae:	2a 95       	dec	r18
 5b0:	e2 f7       	brpl	.-8      	; 0x5aa <main+0x1aa>
 5b2:	80 fd       	sbrc	r24, 0
 5b4:	46 c0       	rjmp	.+140    	; 0x642 <main+0x242>
			{
				if (minute < 59)
 5b6:	80 91 6c 00 	lds	r24, 0x006C
 5ba:	90 91 6d 00 	lds	r25, 0x006D
 5be:	cb 97       	sbiw	r24, 0x3b	; 59
 5c0:	50 f4       	brcc	.+20     	; 0x5d6 <main+0x1d6>
				{
					minute++;
 5c2:	80 91 6c 00 	lds	r24, 0x006C
 5c6:	90 91 6d 00 	lds	r25, 0x006D
 5ca:	01 96       	adiw	r24, 0x01	; 1
 5cc:	90 93 6d 00 	sts	0x006D, r25
 5d0:	80 93 6c 00 	sts	0x006C, r24
 5d4:	04 c0       	rjmp	.+8      	; 0x5de <main+0x1de>
				}
				else
				{
					minute = 0;
 5d6:	10 92 6d 00 	sts	0x006D, r1
 5da:	10 92 6c 00 	sts	0x006C, r1
				}
				sekunde = 0;
 5de:	10 92 6f 00 	sts	0x006F, r1
 5e2:	10 92 6e 00 	sts	0x006E, r1
				TCNT1H = 0x00;
 5e6:	1d bc       	out	0x2d, r1	; 45
				TCNT1L = 0x00;
 5e8:	1c bc       	out	0x2c, r1	; 44
				statusReg |= 1<<button4Bit; // Button was pressed
 5ea:	80 91 63 00 	lds	r24, 0x0063
 5ee:	20 91 69 00 	lds	r18, 0x0069
 5f2:	ae 01       	movw	r20, r28
 5f4:	02 c0       	rjmp	.+4      	; 0x5fa <main+0x1fa>
 5f6:	44 0f       	add	r20, r20
 5f8:	55 1f       	adc	r21, r21
 5fa:	8a 95       	dec	r24
 5fc:	e2 f7       	brpl	.-8      	; 0x5f6 <main+0x1f6>
 5fe:	ca 01       	movw	r24, r20
 600:	82 2b       	or	r24, r18
 602:	80 93 69 00 	sts	0x0069, r24
				statusReg |= 1<<updateBit;
 606:	80 91 68 00 	lds	r24, 0x0068
 60a:	20 91 69 00 	lds	r18, 0x0069
 60e:	ae 01       	movw	r20, r28
 610:	02 c0       	rjmp	.+4      	; 0x616 <main+0x216>
 612:	44 0f       	add	r20, r20
 614:	55 1f       	adc	r21, r21
 616:	8a 95       	dec	r24
 618:	e2 f7       	brpl	.-8      	; 0x612 <main+0x212>
 61a:	ca 01       	movw	r24, r20
 61c:	82 2b       	or	r24, r18
 61e:	80 93 69 00 	sts	0x0069, r24
 622:	0f c0       	rjmp	.+30     	; 0x642 <main+0x242>
			}
		}
		else
		{
			statusReg &= ~(1<<button4Bit); // Button is not pressed
 624:	80 91 63 00 	lds	r24, 0x0063
 628:	20 91 69 00 	lds	r18, 0x0069
 62c:	ae 01       	movw	r20, r28
 62e:	02 c0       	rjmp	.+4      	; 0x634 <main+0x234>
 630:	44 0f       	add	r20, r20
 632:	55 1f       	adc	r21, r21
 634:	8a 95       	dec	r24
 636:	e2 f7       	brpl	.-8      	; 0x630 <main+0x230>
 638:	ca 01       	movw	r24, r20
 63a:	80 95       	com	r24
 63c:	82 23       	and	r24, r18
 63e:	80 93 69 00 	sts	0x0069, r24
		}
		// ==================================


		// ========= Setting Minuten - =============
		if ( !( PINB & (1<<PINB2) ) )	// When pulled to LOW by pressing button
 642:	b2 99       	sbic	0x16, 2	; 22
 644:	43 c0       	rjmp	.+134    	; 0x6cc <main+0x2cc>
		{
			if (bit_is_clear(statusReg, button3Bit)) // When previously not pressed
 646:	80 91 69 00 	lds	r24, 0x0069
 64a:	20 91 64 00 	lds	r18, 0x0064
 64e:	90 e0       	ldi	r25, 0x00	; 0
 650:	02 c0       	rjmp	.+4      	; 0x656 <main+0x256>
 652:	95 95       	asr	r25
 654:	87 95       	ror	r24
 656:	2a 95       	dec	r18
 658:	e2 f7       	brpl	.-8      	; 0x652 <main+0x252>
 65a:	80 fd       	sbrc	r24, 0
 65c:	46 c0       	rjmp	.+140    	; 0x6ea <main+0x2ea>
			{
				if (minute > 1)
 65e:	80 91 6c 00 	lds	r24, 0x006C
 662:	90 91 6d 00 	lds	r25, 0x006D
 666:	02 97       	sbiw	r24, 0x02	; 2
 668:	50 f0       	brcs	.+20     	; 0x67e <main+0x27e>
				{
					minute--;
 66a:	80 91 6c 00 	lds	r24, 0x006C
 66e:	90 91 6d 00 	lds	r25, 0x006D
 672:	01 97       	sbiw	r24, 0x01	; 1
 674:	90 93 6d 00 	sts	0x006D, r25
 678:	80 93 6c 00 	sts	0x006C, r24
 67c:	04 c0       	rjmp	.+8      	; 0x686 <main+0x286>
				}
				else
				{
					minute = 59;
 67e:	10 93 6d 00 	sts	0x006D, r17
 682:	00 93 6c 00 	sts	0x006C, r16
				}
				sekunde = 0;
 686:	10 92 6f 00 	sts	0x006F, r1
 68a:	10 92 6e 00 	sts	0x006E, r1
				TCNT1H = 0x00;
 68e:	1d bc       	out	0x2d, r1	; 45
				TCNT1L = 0x00;
 690:	1c bc       	out	0x2c, r1	; 44
				statusReg |= 1<<button3Bit; // Button was pressed
 692:	80 91 64 00 	lds	r24, 0x0064
 696:	20 91 69 00 	lds	r18, 0x0069
 69a:	ae 01       	movw	r20, r28
 69c:	02 c0       	rjmp	.+4      	; 0x6a2 <main+0x2a2>
 69e:	44 0f       	add	r20, r20
 6a0:	55 1f       	adc	r21, r21
 6a2:	8a 95       	dec	r24
 6a4:	e2 f7       	brpl	.-8      	; 0x69e <main+0x29e>
 6a6:	ca 01       	movw	r24, r20
 6a8:	82 2b       	or	r24, r18
 6aa:	80 93 69 00 	sts	0x0069, r24
				statusReg |= 1<<updateBit;
 6ae:	80 91 68 00 	lds	r24, 0x0068
 6b2:	20 91 69 00 	lds	r18, 0x0069
 6b6:	ae 01       	movw	r20, r28
 6b8:	02 c0       	rjmp	.+4      	; 0x6be <main+0x2be>
 6ba:	44 0f       	add	r20, r20
 6bc:	55 1f       	adc	r21, r21
 6be:	8a 95       	dec	r24
 6c0:	e2 f7       	brpl	.-8      	; 0x6ba <main+0x2ba>
 6c2:	ca 01       	movw	r24, r20
 6c4:	82 2b       	or	r24, r18
 6c6:	80 93 69 00 	sts	0x0069, r24
 6ca:	0f c0       	rjmp	.+30     	; 0x6ea <main+0x2ea>
			}
		}
		else
		{
			statusReg &= ~(1<<button3Bit); // Button is not pressed
 6cc:	80 91 64 00 	lds	r24, 0x0064
 6d0:	20 91 69 00 	lds	r18, 0x0069
 6d4:	ae 01       	movw	r20, r28
 6d6:	02 c0       	rjmp	.+4      	; 0x6dc <main+0x2dc>
 6d8:	44 0f       	add	r20, r20
 6da:	55 1f       	adc	r21, r21
 6dc:	8a 95       	dec	r24
 6de:	e2 f7       	brpl	.-8      	; 0x6d8 <main+0x2d8>
 6e0:	ca 01       	movw	r24, r20
 6e2:	80 95       	com	r24
 6e4:	82 23       	and	r24, r18
 6e6:	80 93 69 00 	sts	0x0069, r24
		}
		// ==================================
				
		// Toggle Alarm
		if ( !( PIND & (1<<PIND6) ) )	// When pulled to LOW by pressing button
 6ea:	86 99       	sbic	0x10, 6	; 16
 6ec:	1e c0       	rjmp	.+60     	; 0x72a <main+0x32a>
		{
			if (bit_is_clear(statusReg, button6Bit)) // When previously not pressed
 6ee:	80 91 69 00 	lds	r24, 0x0069
 6f2:	20 91 61 00 	lds	r18, 0x0061
 6f6:	90 e0       	ldi	r25, 0x00	; 0
 6f8:	02 c0       	rjmp	.+4      	; 0x6fe <main+0x2fe>
 6fa:	95 95       	asr	r25
 6fc:	87 95       	ror	r24
 6fe:	2a 95       	dec	r18
 700:	e2 f7       	brpl	.-8      	; 0x6fa <main+0x2fa>
 702:	80 fd       	sbrc	r24, 0
 704:	21 c0       	rjmp	.+66     	; 0x748 <main+0x348>
			{
				PORTD ^= (1<<PIND5);
 706:	82 b3       	in	r24, 0x12	; 18
 708:	8d 25       	eor	r24, r13
 70a:	82 bb       	out	0x12, r24	; 18
				statusReg |= 1<<button6Bit; // Button was pressed
 70c:	80 91 61 00 	lds	r24, 0x0061
 710:	20 91 69 00 	lds	r18, 0x0069
 714:	ae 01       	movw	r20, r28
 716:	02 c0       	rjmp	.+4      	; 0x71c <main+0x31c>
 718:	44 0f       	add	r20, r20
 71a:	55 1f       	adc	r21, r21
 71c:	8a 95       	dec	r24
 71e:	e2 f7       	brpl	.-8      	; 0x718 <main+0x318>
 720:	ca 01       	movw	r24, r20
 722:	82 2b       	or	r24, r18
 724:	80 93 69 00 	sts	0x0069, r24
 728:	0f c0       	rjmp	.+30     	; 0x748 <main+0x348>
				//statusReg |= 1<<updateBit;
			}
		}
		else
		{
			statusReg &= ~(1<<button6Bit); // Button is not pressed
 72a:	80 91 61 00 	lds	r24, 0x0061
 72e:	20 91 69 00 	lds	r18, 0x0069
 732:	ae 01       	movw	r20, r28
 734:	02 c0       	rjmp	.+4      	; 0x73a <main+0x33a>
 736:	44 0f       	add	r20, r20
 738:	55 1f       	adc	r21, r21
 73a:	8a 95       	dec	r24
 73c:	e2 f7       	brpl	.-8      	; 0x736 <main+0x336>
 73e:	ca 01       	movw	r24, r20
 740:	80 95       	com	r24
 742:	82 23       	and	r24, r18
 744:	80 93 69 00 	sts	0x0069, r24
		}
		
		// Mode Toggle
		if ( !( PINB & (1<<PINB0) ) )	// When pulled to LOW by pressing button
 748:	b0 99       	sbic	0x16, 0	; 22
 74a:	37 c0       	rjmp	.+110    	; 0x7ba <main+0x3ba>
		{
			if (bit_is_clear(statusReg, button5Bit)) // When previously not pressed
 74c:	80 91 69 00 	lds	r24, 0x0069
 750:	20 91 62 00 	lds	r18, 0x0062
 754:	90 e0       	ldi	r25, 0x00	; 0
 756:	02 c0       	rjmp	.+4      	; 0x75c <main+0x35c>
 758:	95 95       	asr	r25
 75a:	87 95       	ror	r24
 75c:	2a 95       	dec	r18
 75e:	e2 f7       	brpl	.-8      	; 0x758 <main+0x358>
 760:	80 fd       	sbrc	r24, 0
 762:	3a c0       	rjmp	.+116    	; 0x7d8 <main+0x3d8>
			{
				statusReg ^= 1<<modeBit;
 764:	80 91 60 00 	lds	r24, 0x0060
 768:	20 91 69 00 	lds	r18, 0x0069
 76c:	ae 01       	movw	r20, r28
 76e:	02 c0       	rjmp	.+4      	; 0x774 <main+0x374>
 770:	44 0f       	add	r20, r20
 772:	55 1f       	adc	r21, r21
 774:	8a 95       	dec	r24
 776:	e2 f7       	brpl	.-8      	; 0x770 <main+0x370>
 778:	ca 01       	movw	r24, r20
 77a:	82 27       	eor	r24, r18
 77c:	80 93 69 00 	sts	0x0069, r24
				statusReg |= 1<<button5Bit; // Button was pressed
 780:	80 91 62 00 	lds	r24, 0x0062
 784:	20 91 69 00 	lds	r18, 0x0069
 788:	ae 01       	movw	r20, r28
 78a:	02 c0       	rjmp	.+4      	; 0x790 <main+0x390>
 78c:	44 0f       	add	r20, r20
 78e:	55 1f       	adc	r21, r21
 790:	8a 95       	dec	r24
 792:	e2 f7       	brpl	.-8      	; 0x78c <main+0x38c>
 794:	ca 01       	movw	r24, r20
 796:	82 2b       	or	r24, r18
 798:	80 93 69 00 	sts	0x0069, r24
				statusReg |= 1<<updateBit;
 79c:	80 91 68 00 	lds	r24, 0x0068
 7a0:	20 91 69 00 	lds	r18, 0x0069
 7a4:	ae 01       	movw	r20, r28
 7a6:	02 c0       	rjmp	.+4      	; 0x7ac <main+0x3ac>
 7a8:	44 0f       	add	r20, r20
 7aa:	55 1f       	adc	r21, r21
 7ac:	8a 95       	dec	r24
 7ae:	e2 f7       	brpl	.-8      	; 0x7a8 <main+0x3a8>
 7b0:	ca 01       	movw	r24, r20
 7b2:	82 2b       	or	r24, r18
 7b4:	80 93 69 00 	sts	0x0069, r24
 7b8:	0f c0       	rjmp	.+30     	; 0x7d8 <main+0x3d8>
			}
		}
		else
		{
			statusReg &= ~(1<<button5Bit); // Button is not pressed
 7ba:	80 91 62 00 	lds	r24, 0x0062
 7be:	20 91 69 00 	lds	r18, 0x0069
 7c2:	ae 01       	movw	r20, r28
 7c4:	02 c0       	rjmp	.+4      	; 0x7ca <main+0x3ca>
 7c6:	44 0f       	add	r20, r20
 7c8:	55 1f       	adc	r21, r21
 7ca:	8a 95       	dec	r24
 7cc:	e2 f7       	brpl	.-8      	; 0x7c6 <main+0x3c6>
 7ce:	ca 01       	movw	r24, r20
 7d0:	80 95       	com	r24
 7d2:	82 23       	and	r24, r18
 7d4:	80 93 69 00 	sts	0x0069, r24
			encodeLed();
			statusReg &= ~(1<<updateBit);
		}
		*/
		
		encodeLed();
 7d8:	0e 94 49 00 	call	0x92	; 0x92 <encodeLed>
		
    } // while end
 7dc:	42 ce       	rjmp	.-892    	; 0x462 <main+0x62>

000007de <__vector_7>:
}

ISR (TIMER1_COMPA_vect)
{
 7de:	1f 92       	push	r1
 7e0:	0f 92       	push	r0
 7e2:	0f b6       	in	r0, 0x3f	; 63
 7e4:	0f 92       	push	r0
 7e6:	11 24       	eor	r1, r1
 7e8:	2f 93       	push	r18
 7ea:	3f 93       	push	r19
 7ec:	4f 93       	push	r20
 7ee:	6f 93       	push	r22
 7f0:	7f 93       	push	r23
 7f2:	8f 93       	push	r24
 7f4:	9f 93       	push	r25
	sekunde++;
 7f6:	80 91 6e 00 	lds	r24, 0x006E
 7fa:	90 91 6f 00 	lds	r25, 0x006F
 7fe:	01 96       	adiw	r24, 0x01	; 1
 800:	90 93 6f 00 	sts	0x006F, r25
 804:	80 93 6e 00 	sts	0x006E, r24
	if(sekunde == 60)
 808:	80 91 6e 00 	lds	r24, 0x006E
 80c:	90 91 6f 00 	lds	r25, 0x006F
 810:	cc 97       	sbiw	r24, 0x3c	; 60
 812:	69 f4       	brne	.+26     	; 0x82e <__vector_7+0x50>
	{
		minute++;
 814:	80 91 6c 00 	lds	r24, 0x006C
 818:	90 91 6d 00 	lds	r25, 0x006D
 81c:	01 96       	adiw	r24, 0x01	; 1
 81e:	90 93 6d 00 	sts	0x006D, r25
 822:	80 93 6c 00 	sts	0x006C, r24
		sekunde = 0;
 826:	10 92 6f 00 	sts	0x006F, r1
 82a:	10 92 6e 00 	sts	0x006E, r1
	}
	if(minute == 60)
 82e:	80 91 6c 00 	lds	r24, 0x006C
 832:	90 91 6d 00 	lds	r25, 0x006D
 836:	cc 97       	sbiw	r24, 0x3c	; 60
 838:	69 f4       	brne	.+26     	; 0x854 <__vector_7+0x76>
	{
		stunde++;
 83a:	80 91 6a 00 	lds	r24, 0x006A
 83e:	90 91 6b 00 	lds	r25, 0x006B
 842:	01 96       	adiw	r24, 0x01	; 1
 844:	90 93 6b 00 	sts	0x006B, r25
 848:	80 93 6a 00 	sts	0x006A, r24
		minute = 0;
 84c:	10 92 6d 00 	sts	0x006D, r1
 850:	10 92 6c 00 	sts	0x006C, r1
	}
	if(stunde == 24)
 854:	80 91 6a 00 	lds	r24, 0x006A
 858:	90 91 6b 00 	lds	r25, 0x006B
 85c:	48 97       	sbiw	r24, 0x18	; 24
 85e:	21 f4       	brne	.+8      	; 0x868 <__stack+0x9>
	{
		stunde = 0;
 860:	10 92 6b 00 	sts	0x006B, r1
 864:	10 92 6a 00 	sts	0x006A, r1
	}
	statusReg |= 1<<updateBit;
 868:	80 91 68 00 	lds	r24, 0x0068
 86c:	40 91 69 00 	lds	r20, 0x0069
 870:	21 e0       	ldi	r18, 0x01	; 1
 872:	30 e0       	ldi	r19, 0x00	; 0
 874:	b9 01       	movw	r22, r18
 876:	02 c0       	rjmp	.+4      	; 0x87c <__stack+0x1d>
 878:	66 0f       	add	r22, r22
 87a:	77 1f       	adc	r23, r23
 87c:	8a 95       	dec	r24
 87e:	e2 f7       	brpl	.-8      	; 0x878 <__stack+0x19>
 880:	cb 01       	movw	r24, r22
 882:	84 2b       	or	r24, r20
 884:	80 93 69 00 	sts	0x0069, r24
 888:	9f 91       	pop	r25
 88a:	8f 91       	pop	r24
 88c:	7f 91       	pop	r23
 88e:	6f 91       	pop	r22
 890:	4f 91       	pop	r20
 892:	3f 91       	pop	r19
 894:	2f 91       	pop	r18
 896:	0f 90       	pop	r0
 898:	0f be       	out	0x3f, r0	; 63
 89a:	0f 90       	pop	r0
 89c:	1f 90       	pop	r1
 89e:	18 95       	reti

000008a0 <__umulhisi3>:
 8a0:	a2 9f       	mul	r26, r18
 8a2:	b0 01       	movw	r22, r0
 8a4:	b3 9f       	mul	r27, r19
 8a6:	c0 01       	movw	r24, r0
 8a8:	a3 9f       	mul	r26, r19
 8aa:	70 0d       	add	r23, r0
 8ac:	81 1d       	adc	r24, r1
 8ae:	11 24       	eor	r1, r1
 8b0:	91 1d       	adc	r25, r1
 8b2:	b2 9f       	mul	r27, r18
 8b4:	70 0d       	add	r23, r0
 8b6:	81 1d       	adc	r24, r1
 8b8:	11 24       	eor	r1, r1
 8ba:	91 1d       	adc	r25, r1
 8bc:	08 95       	ret

000008be <_exit>:
 8be:	f8 94       	cli

000008c0 <__stop_program>:
 8c0:	ff cf       	rjmp	.-2      	; 0x8c0 <__stop_program>
